; Function Attrs: nounwind uwtable
define i32 @H5Iclear_type(i32 noundef %0, i1 noundef zeroext %1) local_unnamed_addr #0 {
  %3 = load i8, ptr @H5_libinit_g, align 1
  %4 = trunc i8 %3 to i1
  %5 = load i8, ptr @H5_libterm_g, align 1
  %6 = trunc i8 %5 to i1
  %7 = select i1 %4, i1 true, i1 %6
  br i1 %7, label %15, label %8

8:                                                ; preds = %2
  %9 = tail call i32 @H5_init_library() #3
  %10 = icmp slt i32 %9, 0
  br i1 %10, label %11, label %15

11:                                               ; preds = %8
  %12 = load i64, ptr @H5E_FUNC_g, align 8
  %13 = load i64, ptr @H5E_CANTINIT_g, align 8
  %14 = tail call i32 (ptr, ptr, i32, i64, i64, ptr, ...) @H5E_printf_stack(ptr noundef nonnull @.str, ptr noundef nonnull @__func__.H5Iclear_type, i32 noundef 243, i64 noundef %12, i64 noundef %13, ptr noundef nonnull @.str.1) #3
  br label %.thread21

15:                                               ; preds = %8, %2
  %16 = tail call i32 @H5CX_push() #3
  %17 = icmp slt i32 %16, 0
  br i1 %17, label %18, label %22

18:                                               ; preds = %15
  %19 = load i64, ptr @H5E_FUNC_g, align 8
  %20 = load i64, ptr @H5E_CANTSET_g, align 8
  %21 = tail call i32 (ptr, ptr, i32, i64, i64, ptr, ...) @H5E_printf_stack(ptr noundef nonnull @.str, ptr noundef nonnull @__func__.H5Iclear_type, i32 noundef 243, i64 noundef %19, i64 noundef %20, ptr noundef nonnull @.str.2) #3
  br label %.thread21

22:                                               ; preds = %15
  %23 = tail call i32 @H5E_clear_stack() #3
  %24 = add i32 %0, -1
  %or.cond = icmp ult i32 %24, 16
  br i1 %or.cond, label %.thread26, label %29

.thread26:                                        ; preds = %22
  %25 = load i64, ptr @H5E_ID_g, align 8
  %26 = load i64, ptr @H5E_BADGROUP_g, align 8
  %27 = tail call i32 (ptr, ptr, i32, i64, i64, ptr, ...) @H5E_printf_stack(ptr noundef nonnull @.str, ptr noundef nonnull @__func__.H5Iclear_type, i32 noundef 246, i64 noundef %25, i64 noundef %26, ptr noundef nonnull @.str.6) #3
  %28 = tail call i32 @H5CX_pop(i1 noundef zeroext true) #3
  br label %.thread21

29:                                               ; preds = %22
  %30 = tail call i32 @H5I_clear_type(i32 noundef %0, i1 noundef zeroext %1, i1 noundef zeroext true) #3
  %31 = tail call i32 @H5CX_pop(i1 noundef zeroext true) #3
  br label %33

.thread21:                                        ; preds = %18, %11, %.thread26
  %32 = tail call i32 @H5E_dump_api_stack() #3
  br label %33

33:                                               ; preds = %29, %.thread21
  %.0121624 = phi i32 [ -1, %.thread21 ], [ %30, %29 ]
  ret i32 %.0121624
}